target datalayout = "e-m:e-p270:32:32-p271:32:32-p272:64:64-i64:64-i128:128-f80:128-n8:16:32:64-S128"
target triple = "x86_64-pc-linux-gnu"

; Function Attrs: alwaysinline nounwind willreturn memory(none) uwtable
define internal signext i16 @av_clip_int16_c(i32 noundef %0) #8 {
  %2 = alloca i16, align 2
  %3 = alloca i32, align 4
  store i32 %0, ptr %3, align 4, !tbaa !11
  %4 = load i32, ptr %3, align 4, !tbaa !11
  %5 = add i32 %4, 32768
  %6 = and i32 %5, -65536
  %7 = icmp ne i32 %6, 0
  br i1 %7, label %8, label %13

8:                                                ; preds = %1
  %9 = load i32, ptr %3, align 4, !tbaa !11
  %10 = ashr i32 %9, 31
  %11 = xor i32 %10, 32767
  %12 = trunc i32 %11 to i16
  store i16 %12, ptr %2, align 2
  br label %16

13:                                               ; preds = %1
  %14 = load i32, ptr %3, align 4, !tbaa !11
  %15 = trunc i32 %14 to i16
  store i16 %15, ptr %2, align 2
  br label %16

16:                                               ; preds = %13, %8
  %17 = load i16, ptr %2, align 2
  ret i16 %17
}

; Function Attrs: nounwind uwtable
define internal void @mix8to2_clip_s16(ptr noundef %0, ptr noundef %1, ptr noundef %2, i32 noundef %3) #0 {
  %5 = alloca ptr, align 8
  %6 = alloca ptr, align 8
  %7 = alloca ptr, align 8
  %8 = alloca i32, align 4
  %9 = alloca i32, align 4
  %10 = alloca i32, align 4
  store ptr %0, ptr %5, align 8, !tbaa !120
  store ptr %1, ptr %6, align 8, !tbaa !120
  store ptr %2, ptr %7, align 8, !tbaa !86
  store i32 %3, ptr %8, align 4, !tbaa !11
  call void @llvm.lifetime.start.p0(i64 4, ptr %9) #9
  store i32 0, ptr %9, align 4, !tbaa !11
  br label %11

11:                                               ; preds = %139, %4
  %12 = load i32, ptr %9, align 4, !tbaa !11
  %13 = load i32, ptr %8, align 4, !tbaa !11
  %14 = icmp slt i32 %12, %13
  br i1 %14, label %15, label %142

15:                                               ; preds = %11
  call void @llvm.lifetime.start.p0(i64 4, ptr %10) #9
  %16 = load ptr, ptr %6, align 8, !tbaa !120
  %17 = getelementptr inbounds ptr, ptr %16, i64 2
  %18 = load ptr, ptr %17, align 8, !tbaa !84
  %19 = load i32, ptr %9, align 4, !tbaa !11
  %20 = sext i32 %19 to i64
  %21 = getelementptr inbounds i16, ptr %18, i64 %20
  %22 = load i16, ptr %21, align 2, !tbaa !87
  %23 = sext i16 %22 to i32
  %24 = load ptr, ptr %7, align 8, !tbaa !86
  %25 = getelementptr inbounds i32, ptr %24, i64 2
  %26 = load i32, ptr %25, align 4, !tbaa !11
  %27 = mul nsw i32 %23, %26
  %28 = load ptr, ptr %6, align 8, !tbaa !120
  %29 = getelementptr inbounds ptr, ptr %28, i64 3
  %30 = load ptr, ptr %29, align 8, !tbaa !84
  %31 = load i32, ptr %9, align 4, !tbaa !11
  %32 = sext i32 %31 to i64
  %33 = getelementptr inbounds i16, ptr %30, i64 %32
  %34 = load i16, ptr %33, align 2, !tbaa !87
  %35 = sext i16 %34 to i32
  %36 = load ptr, ptr %7, align 8, !tbaa !86
  %37 = getelementptr inbounds i32, ptr %36, i64 3
  %38 = load i32, ptr %37, align 4, !tbaa !11
  %39 = mul nsw i32 %35, %38
  %40 = add nsw i32 %27, %39
  store i32 %40, ptr %10, align 4, !tbaa !11
  %41 = load i32, ptr %10, align 4, !tbaa !11
  %42 = load ptr, ptr %6, align 8, !tbaa !120
  %43 = getelementptr inbounds ptr, ptr %42, i64 0
  %44 = load ptr, ptr %43, align 8, !tbaa !84
  %45 = load i32, ptr %9, align 4, !tbaa !11
  %46 = sext i32 %45 to i64
  %47 = getelementptr inbounds i16, ptr %44, i64 %46
  %48 = load i16, ptr %47, align 2, !tbaa !87
  %49 = sext i16 %48 to i32
  %50 = load ptr, ptr %7, align 8, !tbaa !86
  %51 = getelementptr inbounds i32, ptr %50, i64 0
  %52 = load i32, ptr %51, align 4, !tbaa !11
  %53 = mul nsw i32 %49, %52
  %54 = add nsw i32 %41, %53
  %55 = load ptr, ptr %6, align 8, !tbaa !120
  %56 = getelementptr inbounds ptr, ptr %55, i64 4
  %57 = load ptr, ptr %56, align 8, !tbaa !84
  %58 = load i32, ptr %9, align 4, !tbaa !11
  %59 = sext i32 %58 to i64
  %60 = getelementptr inbounds i16, ptr %57, i64 %59
  %61 = load i16, ptr %60, align 2, !tbaa !87
  %62 = sext i16 %61 to i32
  %63 = load ptr, ptr %7, align 8, !tbaa !86
  %64 = getelementptr inbounds i32, ptr %63, i64 4
  %65 = load i32, ptr %64, align 4, !tbaa !11
  %66 = mul nsw i32 %62, %65
  %67 = add nsw i32 %54, %66
  %68 = load ptr, ptr %6, align 8, !tbaa !120
  %69 = getelementptr inbounds ptr, ptr %68, i64 6
  %70 = load ptr, ptr %69, align 8, !tbaa !84
  %71 = load i32, ptr %9, align 4, !tbaa !11
  %72 = sext i32 %71 to i64
  %73 = getelementptr inbounds i16, ptr %70, i64 %72
  %74 = load i16, ptr %73, align 2, !tbaa !87
  %75 = sext i16 %74 to i32
  %76 = load ptr, ptr %7, align 8, !tbaa !86
  %77 = getelementptr inbounds i32, ptr %76, i64 6
  %78 = load i32, ptr %77, align 4, !tbaa !11
  %79 = mul nsw i32 %75, %78
  %80 = add nsw i32 %67, %79
  %81 = add nsw i32 %80, 16384
  %82 = ashr i32 %81, 15
  %83 = call signext i16 @av_clip_int16_c(i32 noundef %82) #12
  %84 = load ptr, ptr %5, align 8, !tbaa !120
  %85 = getelementptr inbounds ptr, ptr %84, i64 0
  %86 = load ptr, ptr %85, align 8, !tbaa !84
  %87 = load i32, ptr %9, align 4, !tbaa !11
  %88 = sext i32 %87 to i64
  %89 = getelementptr inbounds i16, ptr %86, i64 %88
  store i16 %83, ptr %89, align 2, !tbaa !87
  %90 = load i32, ptr %10, align 4, !tbaa !11
  %91 = load ptr, ptr %6, align 8, !tbaa !120
  %92 = getelementptr inbounds ptr, ptr %91, i64 1
  %93 = load ptr, ptr %92, align 8, !tbaa !84
  %94 = load i32, ptr %9, align 4, !tbaa !11
  %95 = sext i32 %94 to i64
  %96 = getelementptr inbounds i16, ptr %93, i64 %95
  %97 = load i16, ptr %96, align 2, !tbaa !87
  %98 = sext i16 %97 to i32
  %99 = load ptr, ptr %7, align 8, !tbaa !86
  %100 = getelementptr inbounds i32, ptr %99, i64 9
  %101 = load i32, ptr %100, align 4, !tbaa !11
  %102 = mul nsw i32 %98, %101
  %103 = add nsw i32 %90, %102
  %104 = load ptr, ptr %6, align 8, !tbaa !120
  %105 = getelementptr inbounds ptr, ptr %104, i64 5
  %106 = load ptr, ptr %105, align 8, !tbaa !84
  %107 = load i32, ptr %9, align 4, !tbaa !11
  %108 = sext i32 %107 to i64
  %109 = getelementptr inbounds i16, ptr %106, i64 %108
  %110 = load i16, ptr %109, align 2, !tbaa !87
  %111 = sext i16 %110 to i32
  %112 = load ptr, ptr %7, align 8, !tbaa !86
  %113 = getelementptr inbounds i32, ptr %112, i64 13
  %114 = load i32, ptr %113, align 4, !tbaa !11
  %115 = mul nsw i32 %111, %114
  %116 = add nsw i32 %103, %115
  %117 = load ptr, ptr %6, align 8, !tbaa !120
  %118 = getelementptr inbounds ptr, ptr %117, i64 7
  %119 = load ptr, ptr %118, align 8, !tbaa !84
  %120 = load i32, ptr %9, align 4, !tbaa !11
  %121 = sext i32 %120 to i64
  %122 = getelementptr inbounds i16, ptr %119, i64 %121
  %123 = load i16, ptr %122, align 2, !tbaa !87
  %124 = sext i16 %123 to i32
  %125 = load ptr, ptr %7, align 8, !tbaa !86
  %126 = getelementptr inbounds i32, ptr %125, i64 15
  %127 = load i32, ptr %126, align 4, !tbaa !11
  %128 = mul nsw i32 %124, %127
  %129 = add nsw i32 %116, %128
  %130 = add nsw i32 %129, 16384
  %131 = ashr i32 %130, 15
  %132 = call signext i16 @av_clip_int16_c(i32 noundef %131) #12
  %133 = load ptr, ptr %5, align 8, !tbaa !120
  %134 = getelementptr inbounds ptr, ptr %133, i64 1
  %135 = load ptr, ptr %134, align 8, !tbaa !84
  %136 = load i32, ptr %9, align 4, !tbaa !11
  %137 = sext i32 %136 to i64
  %138 = getelementptr inbounds i16, ptr %135, i64 %137
  store i16 %132, ptr %138, align 2, !tbaa !87
  call void @llvm.lifetime.end.p0(i64 4, ptr %10) #9
  br label %139

139:                                              ; preds = %15
  %140 = load i32, ptr %9, align 4, !tbaa !11
  %141 = add nsw i32 %140, 1
  store i32 %141, ptr %9, align 4, !tbaa !11
  br label %11, !llvm.loop !126

142:                                              ; preds = %11
  call void @llvm.lifetime.end.p0(i64 4, ptr %9) #9
  ret void
}